target datalayout = "e-m:e-p270:32:32-p271:32:32-p272:64:64-i64:64-i128:128-f80:128-n8:16:32:64-S128"
target triple = "x86_64-pc-linux-gnu"

%struct._object = type { %union.anon, ptr }
%union.anon = type { i64 }
%struct._odictobject = type { %struct.PyDictObject, ptr, ptr, ptr, i64, ptr, i64, ptr, ptr }
%struct.PyDictObject = type { %struct._object, i64, i64, ptr, ptr }
%struct._odictnode = type { ptr, i64, ptr, ptr }
%struct.anon = type { i32, i32 }

; Function Attrs: alwaysinline nounwind uwtable
define internal i32 @_Py_IsImmortal(ptr noundef %0) #4 {
  %2 = alloca ptr, align 8
  store ptr %0, ptr %2, align 8, !tbaa !42
  %3 = load ptr, ptr %2, align 8, !tbaa !42
  %4 = getelementptr inbounds nuw %struct._object, ptr %3, i32 0, i32 0
  %5 = getelementptr inbounds nuw %struct.anon, ptr %4, i32 0, i32 0
  %6 = load i32, ptr %5, align 8, !tbaa !74
  %7 = icmp slt i32 %6, 0
  %8 = zext i1 %7 to i32
  ret i32 %8
}

; Function Attrs: alwaysinline nounwind uwtable
define internal void @Py_DECREF(ptr noundef %0) #4 {
  %2 = alloca ptr, align 8
  store ptr %0, ptr %2, align 8, !tbaa !42
  %3 = load ptr, ptr %2, align 8, !tbaa !42
  %4 = call i32 @_Py_IsImmortal(ptr noundef %3)
  %5 = icmp ne i32 %4, 0
  br i1 %5, label %6, label %7

6:                                                ; preds = %1
  br label %16

7:                                                ; preds = %1
  %8 = load ptr, ptr %2, align 8, !tbaa !42
  %9 = getelementptr inbounds nuw %struct._object, ptr %8, i32 0, i32 0
  %10 = getelementptr inbounds nuw %struct.anon, ptr %9, i32 0, i32 0
  %11 = load i32, ptr %10, align 8, !tbaa !74
  %12 = add i32 %11, -1
  store i32 %12, ptr %10, align 8, !tbaa !74
  %13 = icmp eq i32 %12, 0
  br i1 %13, label %14, label %16

14:                                               ; preds = %7
  %15 = load ptr, ptr %2, align 8, !tbaa !42
  call void @_Py_Dealloc(ptr noundef %15)
  br label %16

16:                                               ; preds = %6, %14, %7
  ret void
}

; Function Attrs: nounwind uwtable
define internal void @_odict_remove_node(ptr noundef %0, ptr noundef %1) #0 {
  %3 = alloca ptr, align 8
  %4 = alloca ptr, align 8
  store ptr %0, ptr %3, align 8, !tbaa !4
  store ptr %1, ptr %4, align 8, !tbaa !46
  %5 = load ptr, ptr %3, align 8, !tbaa !4
  %6 = getelementptr inbounds nuw %struct._odictobject, ptr %5, i32 0, i32 1
  %7 = load ptr, ptr %6, align 8, !tbaa !45
  %8 = load ptr, ptr %4, align 8, !tbaa !46
  %9 = icmp eq ptr %7, %8
  br i1 %9, label %10, label %16

10:                                               ; preds = %2
  %11 = load ptr, ptr %4, align 8, !tbaa !46
  %12 = getelementptr inbounds nuw %struct._odictnode, ptr %11, i32 0, i32 2
  %13 = load ptr, ptr %12, align 8, !tbaa !49
  %14 = load ptr, ptr %3, align 8, !tbaa !4
  %15 = getelementptr inbounds nuw %struct._odictobject, ptr %14, i32 0, i32 1
  store ptr %13, ptr %15, align 8, !tbaa !45
  br label %30

16:                                               ; preds = %2
  %17 = load ptr, ptr %4, align 8, !tbaa !46
  %18 = getelementptr inbounds nuw %struct._odictnode, ptr %17, i32 0, i32 3
  %19 = load ptr, ptr %18, align 8, !tbaa !165
  %20 = icmp ne ptr %19, null
  br i1 %20, label %21, label %29

21:                                               ; preds = %16
  %22 = load ptr, ptr %4, align 8, !tbaa !46
  %23 = getelementptr inbounds nuw %struct._odictnode, ptr %22, i32 0, i32 2
  %24 = load ptr, ptr %23, align 8, !tbaa !49
  %25 = load ptr, ptr %4, align 8, !tbaa !46
  %26 = getelementptr inbounds nuw %struct._odictnode, ptr %25, i32 0, i32 3
  %27 = load ptr, ptr %26, align 8, !tbaa !165
  %28 = getelementptr inbounds nuw %struct._odictnode, ptr %27, i32 0, i32 2
  store ptr %24, ptr %28, align 8, !tbaa !49
  br label %29

29:                                               ; preds = %21, %16
  br label %30

30:                                               ; preds = %29, %10
  %31 = load ptr, ptr %3, align 8, !tbaa !4
  %32 = getelementptr inbounds nuw %struct._odictobject, ptr %31, i32 0, i32 2
  %33 = load ptr, ptr %32, align 8, !tbaa !71
  %34 = load ptr, ptr %4, align 8, !tbaa !46
  %35 = icmp eq ptr %33, %34
  br i1 %35, label %36, label %42

36:                                               ; preds = %30
  %37 = load ptr, ptr %4, align 8, !tbaa !46
  %38 = getelementptr inbounds nuw %struct._odictnode, ptr %37, i32 0, i32 3
  %39 = load ptr, ptr %38, align 8, !tbaa !165
  %40 = load ptr, ptr %3, align 8, !tbaa !4
  %41 = getelementptr inbounds nuw %struct._odictobject, ptr %40, i32 0, i32 2
  store ptr %39, ptr %41, align 8, !tbaa !71
  br label %56

42:                                               ; preds = %30
  %43 = load ptr, ptr %4, align 8, !tbaa !46
  %44 = getelementptr inbounds nuw %struct._odictnode, ptr %43, i32 0, i32 2
  %45 = load ptr, ptr %44, align 8, !tbaa !49
  %46 = icmp ne ptr %45, null
  br i1 %46, label %47, label %55

47:                                               ; preds = %42
  %48 = load ptr, ptr %4, align 8, !tbaa !46
  %49 = getelementptr inbounds nuw %struct._odictnode, ptr %48, i32 0, i32 3
  %50 = load ptr, ptr %49, align 8, !tbaa !165
  %51 = load ptr, ptr %4, align 8, !tbaa !46
  %52 = getelementptr inbounds nuw %struct._odictnode, ptr %51, i32 0, i32 2
  %53 = load ptr, ptr %52, align 8, !tbaa !49
  %54 = getelementptr inbounds nuw %struct._odictnode, ptr %53, i32 0, i32 3
  store ptr %50, ptr %54, align 8, !tbaa !165
  br label %55

55:                                               ; preds = %47, %42
  br label %56

56:                                               ; preds = %55, %36
  %57 = load ptr, ptr %4, align 8, !tbaa !46
  %58 = getelementptr inbounds nuw %struct._odictnode, ptr %57, i32 0, i32 3
  store ptr null, ptr %58, align 8, !tbaa !165
  %59 = load ptr, ptr %4, align 8, !tbaa !46
  %60 = getelementptr inbounds nuw %struct._odictnode, ptr %59, i32 0, i32 2
  store ptr null, ptr %60, align 8, !tbaa !49
  %61 = load ptr, ptr %3, align 8, !tbaa !4
  %62 = getelementptr inbounds nuw %struct._odictobject, ptr %61, i32 0, i32 6
  %63 = load i64, ptr %62, align 8, !tbaa !73
  %64 = add i64 %63, 1
  store i64 %64, ptr %62, align 8, !tbaa !73
  ret void
}

; Function Attrs: nounwind uwtable
define internal i32 @_odict_clear_node(ptr noundef %0, ptr noundef %1, ptr noundef %2, i64 noundef %3) #0 {
  %5 = alloca i32, align 4
  %6 = alloca ptr, align 8
  %7 = alloca ptr, align 8
  %8 = alloca ptr, align 8
  %9 = alloca i64, align 8
  %10 = alloca i64, align 8
  %11 = alloca i32, align 4
  store ptr %0, ptr %6, align 8, !tbaa !4
  store ptr %1, ptr %7, align 8, !tbaa !46
  store ptr %2, ptr %8, align 8, !tbaa !42
  store i64 %3, ptr %9, align 8, !tbaa !55
  call void @llvm.lifetime.start.p0(i64 8, ptr %10) #7
  %12 = load ptr, ptr %6, align 8, !tbaa !4
  %13 = getelementptr inbounds nuw %struct._odictobject, ptr %12, i32 0, i32 1
  %14 = load ptr, ptr %13, align 8, !tbaa !45
  %15 = icmp eq ptr %14, null
  br i1 %15, label %16, label %17

16:                                               ; preds = %4
  store i32 0, ptr %5, align 4
  store i32 1, ptr %11, align 4
  br label %57

17:                                               ; preds = %4
  %18 = load ptr, ptr %6, align 8, !tbaa !4
  %19 = load ptr, ptr %8, align 8, !tbaa !42
  %20 = load i64, ptr %9, align 8, !tbaa !55
  %21 = call i64 @_odict_get_index(ptr noundef %18, ptr noundef %19, i64 noundef %20)
  store i64 %21, ptr %10, align 8, !tbaa !55
  %22 = load i64, ptr %10, align 8, !tbaa !55
  %23 = icmp slt i64 %22, 0
  br i1 %23, label %24, label %28

24:                                               ; preds = %17
  %25 = call ptr @PyErr_Occurred()
  %26 = icmp ne ptr %25, null
  %27 = select i1 %26, i32 -1, i32 0
  store i32 %27, ptr %5, align 4
  store i32 1, ptr %11, align 4
  br label %57

28:                                               ; preds = %17
  %29 = load ptr, ptr %7, align 8, !tbaa !46
  %30 = icmp eq ptr %29, null
  br i1 %30, label %31, label %38

31:                                               ; preds = %28
  %32 = load ptr, ptr %6, align 8, !tbaa !4
  %33 = getelementptr inbounds nuw %struct._odictobject, ptr %32, i32 0, i32 3
  %34 = load ptr, ptr %33, align 8, !tbaa !58
  %35 = load i64, ptr %10, align 8, !tbaa !55
  %36 = getelementptr ptr, ptr %34, i64 %35
  %37 = load ptr, ptr %36, align 8, !tbaa !46
  store ptr %37, ptr %7, align 8, !tbaa !46
  br label %38

38:                                               ; preds = %31, %28
  %39 = load ptr, ptr %7, align 8, !tbaa !46
  %40 = icmp eq ptr %39, null
  br i1 %40, label %41, label %42

41:                                               ; preds = %38
  store i32 0, ptr %5, align 4
  store i32 1, ptr %11, align 4
  br label %57

42:                                               ; preds = %38
  %43 = load ptr, ptr %6, align 8, !tbaa !4
  %44 = getelementptr inbounds nuw %struct._odictobject, ptr %43, i32 0, i32 3
  %45 = load ptr, ptr %44, align 8, !tbaa !58
  %46 = load i64, ptr %10, align 8, !tbaa !55
  %47 = getelementptr ptr, ptr %45, i64 %46
  store ptr null, ptr %47, align 8, !tbaa !46
  %48 = load ptr, ptr %6, align 8, !tbaa !4
  %49 = load ptr, ptr %7, align 8, !tbaa !46
  call void @_odict_remove_node(ptr noundef %48, ptr noundef %49)
  br label %50

50:                                               ; preds = %42
  %51 = load ptr, ptr %7, align 8, !tbaa !46
  %52 = getelementptr inbounds nuw %struct._odictnode, ptr %51, i32 0, i32 0
  %53 = load ptr, ptr %52, align 8, !tbaa !47
  call void @Py_DECREF(ptr noundef %53)
  %54 = load ptr, ptr %7, align 8, !tbaa !46
  call void @PyMem_Free(ptr noundef %54)
  br label %55

55:                                               ; preds = %50
  br label %56

56:                                               ; preds = %55
  store i32 0, ptr %5, align 4
  store i32 1, ptr %11, align 4
  br label %57

57:                                               ; preds = %56, %41, %24, %16
  call void @llvm.lifetime.end.p0(i64 8, ptr %10) #7
  %58 = load i32, ptr %5, align 4
  ret i32 %58
}