; Function Attrs: nounwind uwtable
define internal fastcc range(i32 -1, 1) i32 @_odict_clear_node(ptr noundef %0, ptr noundef %1, ptr noundef %2, i64 noundef %3) unnamed_addr #0 {
  %5 = getelementptr inbounds nuw i8, ptr %0, i64 48
  %6 = load ptr, ptr %5, align 8, !tbaa !41
  %7 = icmp eq ptr %6, null
  br i1 %7, label %59, label %8

8:                                                ; preds = %4
  %9 = tail call fastcc i64 @_odict_get_index(ptr noundef nonnull %0, ptr noundef %2, i64 noundef %3)
  %10 = icmp slt i64 %9, 0
  br i1 %10, label %11, label %14

11:                                               ; preds = %8
  %12 = tail call ptr @PyErr_Occurred() #8
  %.not = icmp ne ptr %12, null
  %13 = sext i1 %.not to i32
  br label %59

14:                                               ; preds = %8
  %15 = icmp eq ptr %1, null
  %16 = getelementptr inbounds nuw i8, ptr %0, i64 64
  %17 = load ptr, ptr %16, align 8, !tbaa !40
  br i1 %15, label %18, label %.thread

18:                                               ; preds = %14
  %19 = getelementptr ptr, ptr %17, i64 %9
  %20 = load ptr, ptr %19, align 8, !tbaa !50
  %21 = icmp eq ptr %20, null
  br i1 %21, label %59, label %.thread

.thread:                                          ; preds = %14, %18
  %.01520 = phi ptr [ %20, %18 ], [ %1, %14 ]
  %22 = getelementptr ptr, ptr %17, i64 %9
  store ptr null, ptr %22, align 8, !tbaa !50
  %23 = load ptr, ptr %5, align 8, !tbaa !41
  %24 = icmp eq ptr %23, %.01520
  br i1 %24, label %25, label %28

25:                                               ; preds = %.thread
  %26 = getelementptr inbounds nuw i8, ptr %.01520, i64 16
  %27 = load ptr, ptr %26, align 8, !tbaa !42
  store ptr %27, ptr %5, align 8, !tbaa !41
  br label %35

28:                                               ; preds = %.thread
  %29 = getelementptr inbounds nuw i8, ptr %.01520, i64 24
  %30 = load ptr, ptr %29, align 8, !tbaa !140
  %.not.i18 = icmp eq ptr %30, null
  br i1 %.not.i18, label %35, label %31

31:                                               ; preds = %28
  %32 = getelementptr inbounds nuw i8, ptr %.01520, i64 16
  %33 = load ptr, ptr %32, align 8, !tbaa !42
  %34 = getelementptr inbounds nuw i8, ptr %30, i64 16
  store ptr %33, ptr %34, align 8, !tbaa !42
  br label %35

35:                                               ; preds = %31, %28, %25
  %36 = getelementptr inbounds nuw i8, ptr %0, i64 56
  %37 = load ptr, ptr %36, align 8, !tbaa !139
  %38 = icmp eq ptr %37, %.01520
  br i1 %38, label %39, label %42

39:                                               ; preds = %35
  %40 = getelementptr inbounds nuw i8, ptr %.01520, i64 24
  %41 = load ptr, ptr %40, align 8, !tbaa !140
  store ptr %41, ptr %36, align 8, !tbaa !139
  br label %_odict_remove_node.exit

42:                                               ; preds = %35
  %43 = getelementptr inbounds nuw i8, ptr %.01520, i64 16
  %44 = load ptr, ptr %43, align 8, !tbaa !42
  %.not19.i = icmp eq ptr %44, null
  br i1 %.not19.i, label %_odict_remove_node.exit, label %45

45:                                               ; preds = %42
  %46 = getelementptr inbounds nuw i8, ptr %.01520, i64 24
  %47 = load ptr, ptr %46, align 8, !tbaa !140
  %48 = getelementptr inbounds nuw i8, ptr %44, i64 24
  store ptr %47, ptr %48, align 8, !tbaa !140
  br label %_odict_remove_node.exit

_odict_remove_node.exit:                          ; preds = %39, %42, %45
  %49 = getelementptr inbounds nuw i8, ptr %.01520, i64 16
  %50 = getelementptr inbounds nuw i8, ptr %0, i64 88
  tail call void @llvm.memset.p0.i64(ptr noundef nonnull align 8 dereferenceable(16) %49, i8 0, i64 16, i1 false)
  %51 = load i64, ptr %50, align 8, !tbaa !47
  %52 = add i64 %51, 1
  store i64 %52, ptr %50, align 8, !tbaa !47
  %53 = load ptr, ptr %.01520, align 8, !tbaa !44
  %54 = load i32, ptr %53, align 8, !tbaa !38
  %.not.i = icmp sgt i32 %54, -1
  br i1 %.not.i, label %55, label %Py_DECREF.exit

55:                                               ; preds = %_odict_remove_node.exit
  %56 = add nsw i32 %54, -1
  store i32 %56, ptr %53, align 8, !tbaa !38
  %57 = icmp eq i32 %56, 0
  br i1 %57, label %58, label %Py_DECREF.exit

58:                                               ; preds = %55
  tail call void @_Py_Dealloc(ptr noundef nonnull %53) #8
  br label %Py_DECREF.exit

Py_DECREF.exit:                                   ; preds = %_odict_remove_node.exit, %55, %58
  tail call void @PyMem_Free(ptr noundef nonnull %.01520) #8
  br label %59

59:                                               ; preds = %18, %4, %Py_DECREF.exit, %11
  %.0 = phi i32 [ %13, %11 ], [ 0, %Py_DECREF.exit ], [ 0, %4 ], [ 0, %18 ]
  ret i32 %.0
}